target datalayout = "e-m:e-p270:32:32-p271:32:32-p272:64:64-i64:64-i128:128-f80:128-n8:16:32:64-S128"
target triple = "x86_64-pc-linux-gnu"

%struct.GDBState = type { i8, ptr, ptr, ptr, i32, [4096 x i8], i32, i32, i32, ptr, i32, i8, ptr, i32, ptr, ptr, i32, i32, i8 }
%struct.QTailQLink = type { ptr, ptr }
%struct.CPUState = type { %struct.DeviceState, ptr, i32, ptr, i32, i8, i8, ptr, i8, i8, i8, i8, i8, i8, i8, i8, i32, i32, i32, i32, i64, i64, i64, [1 x %struct.__jmp_buf_tag], %struct.QemuMutex, %struct.anon, ptr, i32, i32, ptr, ptr, ptr, ptr, i32, i32, %union.anon, %union.anon.0, %union.anon.1, ptr, ptr, i64, i32, ptr, ptr, ptr, i32, i64, i32, i8, %struct.QemuLockCnt, ptr, i32, i32, i32, i32, i32, ptr, i8, i64, i8, i8, ptr, [0 x i8], %struct.CPUNegativeOffsetState }
%struct.DeviceState = type { %struct.Object, ptr, ptr, i8, i8, i64, i32, i8, ptr, %struct.NamedGPIOListHead, %struct.NamedClockListHead, %struct.BusStateHead, i32, i32, i32, %struct.ResettableState, ptr, %struct.MemReentrancyGuard }
%struct.Object = type { ptr, ptr, ptr, i32, ptr }
%struct.NamedGPIOListHead = type { ptr }
%struct.NamedClockListHead = type { ptr }
%struct.BusStateHead = type { ptr }
%struct.ResettableState = type { i32, i8, i8 }
%struct.MemReentrancyGuard = type { i8 }
%struct.__jmp_buf_tag = type { [8 x i64], i32, %struct.__sigset_t }
%struct.__sigset_t = type { [16 x i64] }
%struct.QemuMutex = type { %union.pthread_mutex_t, i8 }
%union.pthread_mutex_t = type { %struct.__pthread_mutex_s }
%struct.__pthread_mutex_s = type { i32, i32, i32, i32, i32, i16, i16, %struct.__pthread_internal_list }
%struct.__pthread_internal_list = type { ptr, ptr }
%struct.anon = type { ptr, ptr }
%union.anon = type { %struct.QTailQLink }
%union.anon.0 = type { %struct.QTailQLink }
%union.anon.1 = type { %struct.QTailQLink }
%struct.QemuLockCnt = type { i32 }
%struct.CPUNegativeOffsetState = type { %struct.CPUTLB, ptr, i64, i64, %union.IcountDecr, i8 }
%struct.CPUTLB = type { %struct.CPUTLBCommon, [16 x %struct.CPUTLBDesc], [16 x %struct.CPUTLBDescFast] }
%struct.CPUTLBCommon = type { %struct.QemuSpin, i16, i64, i64, i64 }
%struct.QemuSpin = type { i32 }
%struct.CPUTLBDesc = type { i64, i64, i64, i64, i64, i64, [8 x %union.CPUTLBEntry], [8 x %struct.CPUTLBEntryFull], ptr }
%union.CPUTLBEntry = type { %struct.anon.2 }
%struct.anon.2 = type { i64, i64, i64, i64 }
%struct.CPUTLBEntryFull = type { i64, i64, %struct.MemTxAttrs, i8, i8, i8, [3 x i8], %union.anon.3 }
%struct.MemTxAttrs = type { i32, i8, i8, i16 }
%union.anon.3 = type { %struct.anon.4 }
%struct.anon.4 = type { i8, i8, i8 }
%struct.CPUTLBDescFast = type { i64, ptr }
%union.IcountDecr = type { i32 }
%struct._GString = type { ptr, i64, i64 }
%struct.CPUWatchpoint = type { i64, i64, i64, %struct.MemTxAttrs, i32, %union.anon.8 }
%union.anon.8 = type { %struct.QTailQLink }

@gdbserver_state = external global %struct.GDBState, align 8
@.str.20 = private unnamed_addr constant [2 x i8] c"r\00", align 1
@.str.21 = private unnamed_addr constant [2 x i8] c"a\00", align 1
@.str.22 = private unnamed_addr constant [1 x i8] zeroinitializer, align 1
@.str.23 = private unnamed_addr constant [28 x i8] c"T%02xthread:%s;%swatch:%lx;\00", align 1
@.str.24 = private unnamed_addr constant [16 x i8] c"T%02xthread:%s;\00", align 1

; Function Attrs: inlinehint nounwind sspstrong uwtable
define internal void @g_autoptr_cleanup_gstring_free(ptr noundef %0) #3 {
  %2 = alloca ptr, align 8
  store ptr %0, ptr %2, align 8
  %3 = load ptr, ptr %2, align 8
  %4 = icmp ne ptr %3, null
  br i1 %4, label %5, label %8

5:                                                ; preds = %1
  %6 = load ptr, ptr %2, align 8
  %7 = call ptr @g_string_free(ptr noundef %6, i32 noundef 1)
  br label %8

8:                                                ; preds = %5, %1
  ret void
}

; Function Attrs: inlinehint nounwind sspstrong uwtable
define internal void @glib_autoptr_clear_GString(ptr noundef %0) #3 {
  %2 = alloca ptr, align 8
  store ptr %0, ptr %2, align 8
  %3 = load ptr, ptr %2, align 8
  %4 = icmp ne ptr %3, null
  br i1 %4, label %5, label %7

5:                                                ; preds = %1
  %6 = load ptr, ptr %2, align 8
  call void @g_autoptr_cleanup_gstring_free(ptr noundef %6)
  br label %7

7:                                                ; preds = %5, %1
  ret void
}

; Function Attrs: inlinehint nounwind sspstrong uwtable
define internal void @glib_autoptr_cleanup_GString(ptr noundef %0) #3 {
  %2 = alloca ptr, align 8
  store ptr %0, ptr %2, align 8
  %3 = load ptr, ptr %2, align 8
  %4 = load ptr, ptr %3, align 8
  call void @glib_autoptr_clear_GString(ptr noundef %4)
  ret void
}

; Function Attrs: nounwind sspstrong uwtable
define dso_local i32 @gdb_get_cpu_index(ptr noundef %0) #0 {
  %2 = alloca ptr, align 8
  store ptr %0, ptr %2, align 8
  %3 = load ptr, ptr %2, align 8
  %4 = getelementptr inbounds nuw %struct.CPUState, ptr %3, i32 0, i32 51
  %5 = load i32, ptr %4, align 16
  %6 = add i32 %5, 1
  ret i32 %6
}

; Function Attrs: nounwind sspstrong uwtable
define internal void @gdb_vm_state_change(ptr noundef %0, i1 noundef zeroext %1, i32 noundef %2) #0 {
  %4 = alloca ptr, align 8
  %5 = alloca i8, align 1
  %6 = alloca i32, align 4
  %7 = alloca ptr, align 8
  %8 = alloca ptr, align 8
  %9 = alloca ptr, align 8
  %10 = alloca ptr, align 8
  %11 = alloca i32, align 4
  %12 = alloca i32, align 4
  store ptr %0, ptr %4, align 8
  %13 = zext i1 %1 to i8
  store i8 %13, ptr %5, align 1
  store i32 %2, ptr %6, align 4
  call void @llvm.lifetime.start.p0(i64 8, ptr %7) #14
  %14 = load ptr, ptr getelementptr inbounds nuw (%struct.GDBState, ptr @gdbserver_state, i32 0, i32 1), align 8
  store ptr %14, ptr %7, align 8
  call void @llvm.lifetime.start.p0(i64 8, ptr %8) #14
  %15 = call ptr @g_string_new(ptr noundef null)
  store ptr %15, ptr %8, align 8
  call void @llvm.lifetime.start.p0(i64 8, ptr %9) #14
  %16 = call ptr @g_string_new(ptr noundef null)
  store ptr %16, ptr %9, align 8
  call void @llvm.lifetime.start.p0(i64 8, ptr %10) #14
  store ptr null, ptr %10, align 8, !annotation !4
  call void @llvm.lifetime.start.p0(i64 4, ptr %11) #14
  store i32 0, ptr %11, align 4, !annotation !4
  %17 = load i8, ptr %5, align 1, !range !7, !noundef !8
  %18 = trunc i8 %17 to i1
  br i1 %18, label %22, label %19

19:                                               ; preds = %3
  %20 = load i32, ptr getelementptr inbounds nuw (%struct.GDBState, ptr @gdbserver_state, i32 0, i32 4), align 8
  %21 = icmp eq i32 %20, 0
  br i1 %21, label %22, label %23

22:                                               ; preds = %19, %3
  store i32 1, ptr %12, align 4
  br label %99

23:                                               ; preds = %19
  %24 = call zeroext i1 @gdb_handled_syscall()
  br i1 %24, label %25, label %26

25:                                               ; preds = %23
  store i32 1, ptr %12, align 4
  br label %99

26:                                               ; preds = %23
  %27 = load ptr, ptr %7, align 8
  %28 = icmp eq ptr %27, null
  br i1 %28, label %29, label %30

29:                                               ; preds = %26
  store i32 1, ptr %12, align 4
  br label %99

30:                                               ; preds = %26
  %31 = load i8, ptr getelementptr inbounds nuw (%struct.GDBState, ptr @gdbserver_state, i32 0, i32 18), align 8, !range !7, !noundef !8
  %32 = trunc i8 %31 to i1
  br i1 %32, label %34, label %33

33:                                               ; preds = %30
  store i32 1, ptr %12, align 4
  br label %99

34:                                               ; preds = %30
  %35 = load ptr, ptr %7, align 8
  %36 = load ptr, ptr %9, align 8
  call void @gdb_append_thread_id(ptr noundef %35, ptr noundef %36)
  %37 = load i32, ptr %6, align 4
  switch i32 %37, label %84 [
    i32 0, label %38
    i32 4, label %77
    i32 11, label %78
    i32 3, label %79
    i32 13, label %80
    i32 2, label %81
    i32 10, label %82
    i32 8, label %82
    i32 7, label %83
  ]

38:                                               ; preds = %34
  %39 = load ptr, ptr %7, align 8
  %40 = getelementptr inbounds nuw %struct.CPUState, ptr %39, i32 0, i32 38
  %41 = load ptr, ptr %40, align 16
  %42 = icmp ne ptr %41, null
  br i1 %42, label %43, label %74

43:                                               ; preds = %38
  %44 = load ptr, ptr %7, align 8
  %45 = getelementptr inbounds nuw %struct.CPUState, ptr %44, i32 0, i32 38
  %46 = load ptr, ptr %45, align 16
  %47 = getelementptr inbounds nuw %struct.CPUWatchpoint, ptr %46, i32 0, i32 4
  %48 = load i32, ptr %47, align 8
  %49 = and i32 %48, 3
  switch i32 %49, label %52 [
    i32 1, label %50
    i32 3, label %51
  ]

50:                                               ; preds = %43
  store ptr @.str.20, ptr %10, align 8
  br label %53

51:                                               ; preds = %43
  store ptr @.str.21, ptr %10, align 8
  br label %53

52:                                               ; preds = %43
  store ptr @.str.22, ptr %10, align 8
  br label %53

53:                                               ; preds = %52, %51, %50
  %54 = load ptr, ptr %10, align 8
  %55 = load ptr, ptr %7, align 8
  %56 = call i32 @gdb_get_cpu_index(ptr noundef %55)
  %57 = load ptr, ptr %7, align 8
  %58 = getelementptr inbounds nuw %struct.CPUState, ptr %57, i32 0, i32 38
  %59 = load ptr, ptr %58, align 16
  %60 = getelementptr inbounds nuw %struct.CPUWatchpoint, ptr %59, i32 0, i32 0
  %61 = load i64, ptr %60, align 8
  call void @trace_gdbstub_hit_watchpoint(ptr noundef %54, i32 noundef %56, i64 noundef %61)
  %62 = load ptr, ptr %8, align 8
  %63 = load ptr, ptr %9, align 8
  %64 = getelementptr inbounds nuw %struct._GString, ptr %63, i32 0, i32 0
  %65 = load ptr, ptr %64, align 8
  %66 = load ptr, ptr %10, align 8
  %67 = load ptr, ptr %7, align 8
  %68 = getelementptr inbounds nuw %struct.CPUState, ptr %67, i32 0, i32 38
  %69 = load ptr, ptr %68, align 16
  %70 = getelementptr inbounds nuw %struct.CPUWatchpoint, ptr %69, i32 0, i32 0
  %71 = load i64, ptr %70, align 8
  call void (ptr, ptr, ...) @g_string_printf(ptr noundef %62, ptr noundef @.str.23, i32 noundef 5, ptr noundef %65, ptr noundef %66, i64 noundef %71)
  %72 = load ptr, ptr %7, align 8
  %73 = getelementptr inbounds nuw %struct.CPUState, ptr %72, i32 0, i32 38
  store ptr null, ptr %73, align 16
  br label %93

74:                                               ; preds = %38
  call void @trace_gdbstub_hit_break()
  br label %75

75:                                               ; preds = %74
  %76 = load ptr, ptr %7, align 8
  call void @tb_flush(ptr noundef %76)
  store i32 5, ptr %11, align 4
  br label %86

77:                                               ; preds = %34
  call void @trace_gdbstub_hit_paused()
  store i32 2, ptr %11, align 4
  br label %86

78:                                               ; preds = %34
  call void @trace_gdbstub_hit_shutdown()
  store i32 3, ptr %11, align 4
  br label %86

79:                                               ; preds = %34
  call void @trace_gdbstub_hit_io_error()
  store i32 17, ptr %11, align 4
  br label %86

80:                                               ; preds = %34
  call void @trace_gdbstub_hit_watchdog()
  store i32 14, ptr %11, align 4
  br label %86

81:                                               ; preds = %34
  call void @trace_gdbstub_hit_internal_error()
  store i32 6, ptr %11, align 4
  br label %86

82:                                               ; preds = %34, %34
  store i32 1, ptr %12, align 4
  br label %99

83:                                               ; preds = %34
  store i32 24, ptr %11, align 4
  br label %86

84:                                               ; preds = %34
  %85 = load i32, ptr %6, align 4
  call void @trace_gdbstub_hit_unknown(i32 noundef %85)
  store i32 143, ptr %11, align 4
  br label %86

86:                                               ; preds = %84, %83, %81, %80, %79, %78, %77, %75
  %87 = load ptr, ptr %7, align 8
  call void @gdb_set_stop_cpu(ptr noundef %87)
  %88 = load ptr, ptr %8, align 8
  %89 = load i32, ptr %11, align 4
  %90 = load ptr, ptr %9, align 8
  %91 = getelementptr inbounds nuw %struct._GString, ptr %90, i32 0, i32 0
  %92 = load ptr, ptr %91, align 8
  call void (ptr, ptr, ...) @g_string_printf(ptr noundef %88, ptr noundef @.str.24, i32 noundef %89, ptr noundef %92)
  br label %93

93:                                               ; preds = %86, %53
  %94 = load ptr, ptr %8, align 8
  %95 = getelementptr inbounds nuw %struct._GString, ptr %94, i32 0, i32 0
  %96 = load ptr, ptr %95, align 8
  %97 = call i32 @gdb_put_packet(ptr noundef %96)
  store i8 0, ptr getelementptr inbounds nuw (%struct.GDBState, ptr @gdbserver_state, i32 0, i32 18), align 8
  %98 = load ptr, ptr %7, align 8
  call void @cpu_single_step(ptr noundef %98, i32 noundef 0)
  store i32 0, ptr %12, align 4
  br label %99

99:                                               ; preds = %93, %82, %33, %29, %25, %22
  call void @llvm.lifetime.end.p0(i64 4, ptr %11) #14
  call void @llvm.lifetime.end.p0(i64 8, ptr %10) #14
  call void @glib_autoptr_cleanup_GString(ptr noundef %9)
  call void @llvm.lifetime.end.p0(i64 8, ptr %9) #14
  call void @glib_autoptr_cleanup_GString(ptr noundef %8)
  call void @llvm.lifetime.end.p0(i64 8, ptr %8) #14
  call void @llvm.lifetime.end.p0(i64 8, ptr %7) #14
  %100 = load i32, ptr %12, align 4
  switch i32 %100, label %102 [
    i32 0, label %101
    i32 1, label %101
  ]

101:                                              ; preds = %99, %99
  ret void

102:                                              ; preds = %99
  unreachable
}