; Function Attrs: nounwind sspstrong uwtable
define internal void @gdb_vm_state_change(ptr readnone captures(none) %0, i1 noundef zeroext %1, i32 noundef %2) #2 {
  %4 = load ptr, ptr getelementptr inbounds nuw (i8, ptr @gdbserver_state, i64 8), align 8
  %5 = tail call ptr @g_string_new(ptr noundef null) #16
  %6 = tail call ptr @g_string_new(ptr noundef null) #16
  %7 = load i32, ptr getelementptr inbounds nuw (i8, ptr @gdbserver_state, i64 32), align 8
  %8 = icmp eq i32 %7, 0
  %or.cond = select i1 %1, i1 true, i1 %8
  br i1 %or.cond, label %41, label %9

9:                                                ; preds = %3
  %10 = tail call zeroext i1 @gdb_handled_syscall() #16
  %11 = icmp eq ptr %4, null
  %or.cond22 = select i1 %10, i1 true, i1 %11
  br i1 %or.cond22, label %41, label %12

12:                                               ; preds = %9
  %13 = load i8, ptr getelementptr inbounds nuw (i8, ptr @gdbserver_state, i64 4200), align 8, !range !6, !noundef !7
  %14 = trunc nuw i8 %13 to i1
  br i1 %14, label %15, label %41

15:                                               ; preds = %12
  tail call void @gdb_append_thread_id(ptr noundef nonnull %4, ptr noundef %6) #16
  switch i32 %2, label %36 [
    i32 0, label %16
    i32 4, label %31
    i32 11, label %32
    i32 3, label %33
    i32 13, label %34
    i32 2, label %35
    i32 10, label %41
    i32 8, label %41
    i32 7, label %37
  ]

16:                                               ; preds = %15
  %17 = getelementptr inbounds nuw i8, ptr %4, i64 608
  %18 = load ptr, ptr %17, align 16
  %.not = icmp eq ptr %18, null
  br i1 %.not, label %30, label %19

19:                                               ; preds = %16
  %20 = getelementptr inbounds nuw i8, ptr %18, i64 32
  %21 = load i32, ptr %20, align 8
  %22 = and i32 %21, 3
  %switch.selectcmp = icmp eq i32 %22, 3
  %switch.select = select i1 %switch.selectcmp, ptr @.str.21, ptr @.str.22
  %switch.selectcmp20 = icmp eq i32 %22, 1
  %switch.select21 = select i1 %switch.selectcmp20, ptr @.str.20, ptr %switch.select
  %23 = getelementptr inbounds nuw i8, ptr %4, i64 704
  %24 = load i32, ptr %23, align 16
  %25 = add i32 %24, 1
  %26 = load i64, ptr %18, align 8
  tail call fastcc void @trace_gdbstub_hit_watchpoint(ptr noundef nonnull %switch.select21, i32 noundef %25, i64 noundef %26)
  %27 = load ptr, ptr %6, align 8
  %28 = load ptr, ptr %17, align 16
  %29 = load i64, ptr %28, align 8
  tail call void (ptr, ptr, ...) @g_string_printf(ptr noundef %5, ptr noundef nonnull @.str.23, i32 noundef 5, ptr noundef %27, ptr noundef nonnull %switch.select21, i64 noundef %29) #16
  store ptr null, ptr %17, align 16
  br label %.thread

30:                                               ; preds = %16
  tail call fastcc void @trace_gdbstub_hit_break()
  tail call void @tb_flush(ptr noundef nonnull %4) #16
  br label %37

31:                                               ; preds = %15
  tail call fastcc void @trace_gdbstub_hit_paused()
  br label %37

32:                                               ; preds = %15
  tail call fastcc void @trace_gdbstub_hit_shutdown()
  br label %37

33:                                               ; preds = %15
  tail call fastcc void @trace_gdbstub_hit_io_error()
  br label %37

34:                                               ; preds = %15
  tail call fastcc void @trace_gdbstub_hit_watchdog()
  br label %37

35:                                               ; preds = %15
  tail call fastcc void @trace_gdbstub_hit_internal_error()
  br label %37

36:                                               ; preds = %15
  tail call fastcc void @trace_gdbstub_hit_unknown(i32 noundef %2)
  br label %37

37:                                               ; preds = %15, %36, %35, %34, %33, %32, %31, %30
  %.0 = phi i32 [ 143, %36 ], [ 6, %35 ], [ 14, %34 ], [ 17, %33 ], [ 3, %32 ], [ 2, %31 ], [ 5, %30 ], [ 24, %15 ]
  tail call void @gdb_set_stop_cpu(ptr noundef nonnull %4) #16
  %38 = load ptr, ptr %6, align 8
  tail call void (ptr, ptr, ...) @g_string_printf(ptr noundef %5, ptr noundef nonnull @.str.24, i32 noundef %.0, ptr noundef %38) #16
  br label %.thread

.thread:                                          ; preds = %19, %37
  %39 = load ptr, ptr %5, align 8
  %40 = tail call i32 @gdb_put_packet(ptr noundef %39) #16
  store i8 0, ptr getelementptr inbounds nuw (i8, ptr @gdbserver_state, i64 4200), align 8
  tail call void @cpu_single_step(ptr noundef nonnull %4, i32 noundef 0) #16
  br label %42

41:                                               ; preds = %15, %15, %12, %9, %3
  %.not.i.i = icmp eq ptr %6, null
  br i1 %.not.i.i, label %glib_autoptr_cleanup_GString.exit, label %42

42:                                               ; preds = %.thread, %41
  %43 = tail call ptr @g_string_free(ptr noundef nonnull %6, i32 noundef 1) #16
  br label %glib_autoptr_cleanup_GString.exit

glib_autoptr_cleanup_GString.exit:                ; preds = %41, %42
  %.not.i.i24 = icmp eq ptr %5, null
  br i1 %.not.i.i24, label %glib_autoptr_cleanup_GString.exit25, label %44

44:                                               ; preds = %glib_autoptr_cleanup_GString.exit
  %45 = tail call ptr @g_string_free(ptr noundef nonnull %5, i32 noundef 1) #16
  br label %glib_autoptr_cleanup_GString.exit25

glib_autoptr_cleanup_GString.exit25:              ; preds = %glib_autoptr_cleanup_GString.exit, %44
  ret void
}